(dp1
(VTumblr
p2
S'failed'
p3
tp4
ccopy_reg
_reconstructor
p5
(cpyspider.libs.counter
TotalCounter
p6
c__builtin__
object
p7
NtRp8
(dp9
S'cnt'
p10
I0
sbs(g2
S'success'
p11
tp12
g5
(g6
g7
NtRp13
(dp14
g10
I0
sbs(VTaobaoMeinv
p15
S'pending'
tp16
g5
(g6
g7
NtRp17
(dp18
g10
I359
sbs(g2
S'pending'
p19
tp20
g5
(g6
g7
NtRp21
(dp22
g10
I0
sbs(g15
S'success'
tp23
g5
(g6
g7
NtRp24
(dp25
g10
I326
sbs.